; ModuleID = '4/1535.c'
source_filename = "4/1535.c"
target datalayout = "e-m:e-p270:32:32-p271:32:32-p272:64:64-i64:64-f80:128-n8:16:32:64-S128"
target triple = "x86_64-pc-linux-gnu"

@.str = private unnamed_addr constant [6 x i8] c"%d %d\00", align 1
@.str.1 = private unnamed_addr constant [3 x i8] c"%d\00", align 1
@.str.2 = private unnamed_addr constant [4 x i8] c"%d\0A\00", align 1

; Function Attrs: noinline nounwind uwtable
define dso_local i32 @main() #0 {
  %1 = alloca i32, align 4
  %2 = alloca i32, align 4
  %3 = alloca i32, align 4
  %4 = alloca i32, align 4
  %5 = alloca i32, align 4
  %6 = alloca i32, align 4
  %7 = alloca [100 x i32]*, align 8
  store i32 0, i32* %1, align 4
  %8 = call i32 (i8*, ...) @__isoc99_scanf(i8* getelementptr inbounds ([6 x i8], [6 x i8]* @.str, i64 0, i64 0), i32* %5, i32* %6)
  %9 = call noalias i8* @calloc(i64 100, i64 10) #3
  %10 = bitcast i8* %9 to i32*
  %11 = bitcast i32* %10 to [100 x i32]*
  store [100 x i32]* %11, [100 x i32]** %7, align 8
  store i32 0, i32* %2, align 4
  br label %12

12:                                               ; preds = %35, %0
  %13 = load i32, i32* %2, align 4
  %14 = load i32, i32* %5, align 4
  %15 = icmp slt i32 %13, %14
  br i1 %15, label %16, label %38

16:                                               ; preds = %12
  store i32 0, i32* %3, align 4
  br label %17

17:                                               ; preds = %31, %16
  %18 = load i32, i32* %3, align 4
  %19 = load i32, i32* %6, align 4
  %20 = icmp slt i32 %18, %19
  br i1 %20, label %21, label %34

21:                                               ; preds = %17
  %22 = load [100 x i32]*, [100 x i32]** %7, align 8
  %23 = load i32, i32* %2, align 4
  %24 = sext i32 %23 to i64
  %25 = getelementptr inbounds [100 x i32], [100 x i32]* %22, i64 %24
  %26 = getelementptr inbounds [100 x i32], [100 x i32]* %25, i64 0, i64 0
  %27 = load i32, i32* %3, align 4
  %28 = sext i32 %27 to i64
  %29 = getelementptr inbounds i32, i32* %26, i64 %28
  %30 = call i32 (i8*, ...) @__isoc99_scanf(i8* getelementptr inbounds ([3 x i8], [3 x i8]* @.str.1, i64 0, i64 0), i32* %29)
  br label %31

31:                                               ; preds = %21
  %32 = load i32, i32* %3, align 4
  %33 = add nsw i32 %32, 1
  store i32 %33, i32* %3, align 4
  br label %17

34:                                               ; preds = %17
  br label %35

35:                                               ; preds = %34
  %36 = load i32, i32* %2, align 4
  %37 = add nsw i32 %36, 1
  store i32 %37, i32* %2, align 4
  br label %12

38:                                               ; preds = %12
  %39 = load [100 x i32]*, [100 x i32]** %7, align 8
  %40 = getelementptr inbounds [100 x i32], [100 x i32]* %39, i64 0
  %41 = getelementptr inbounds [100 x i32], [100 x i32]* %40, i64 0, i64 0
  %42 = getelementptr inbounds i32, i32* %41, i64 0
  %43 = load i32, i32* %42, align 4
  %44 = call i32 (i8*, ...) @printf(i8* getelementptr inbounds ([4 x i8], [4 x i8]* @.str.2, i64 0, i64 0), i32 %43)
  store i32 1, i32* %3, align 4
  store i32 0, i32* %2, align 4
  br label %45

45:                                               ; preds = %75, %38
  %46 = load i32, i32* %3, align 4
  %47 = load i32, i32* %6, align 4
  %48 = icmp slt i32 %46, %47
  br i1 %48, label %49, label %78

49:                                               ; preds = %45
  %50 = load i32, i32* %3, align 4
  store i32 %50, i32* %4, align 4
  br label %51

51:                                               ; preds = %60, %49
  %52 = load i32, i32* %3, align 4
  %53 = icmp sge i32 %52, 0
  br i1 %53, label %54, label %58

54:                                               ; preds = %51
  %55 = load i32, i32* %2, align 4
  %56 = load i32, i32* %5, align 4
  %57 = icmp slt i32 %55, %56
  br label %58

58:                                               ; preds = %54, %51
  %59 = phi i1 [ false, %51 ], [ %57, %54 ]
  br i1 %59, label %60, label %75

60:                                               ; preds = %58
  %61 = load [100 x i32]*, [100 x i32]** %7, align 8
  %62 = load i32, i32* %2, align 4
  %63 = sext i32 %62 to i64
  %64 = getelementptr inbounds [100 x i32], [100 x i32]* %61, i64 %63
  %65 = getelementptr inbounds [100 x i32], [100 x i32]* %64, i64 0, i64 0
  %66 = load i32, i32* %3, align 4
  %67 = sext i32 %66 to i64
  %68 = getelementptr inbounds i32, i32* %65, i64 %67
  %69 = load i32, i32* %68, align 4
  %70 = call i32 (i8*, ...) @printf(i8* getelementptr inbounds ([4 x i8], [4 x i8]* @.str.2, i64 0, i64 0), i32 %69)
  %71 = load i32, i32* %3, align 4
  %72 = sub nsw i32 %71, 1
  store i32 %72, i32* %3, align 4
  %73 = load i32, i32* %2, align 4
  %74 = add nsw i32 %73, 1
  store i32 %74, i32* %2, align 4
  br label %51

75:                                               ; preds = %58
  %76 = load i32, i32* %4, align 4
  %77 = add nsw i32 %76, 1
  store i32 %77, i32* %3, align 4
  store i32 0, i32* %2, align 4
  br label %45

78:                                               ; preds = %45
  store i32 1, i32* %2, align 4
  %79 = load i32, i32* %6, align 4
  %80 = sub nsw i32 %79, 1
  store i32 %80, i32* %3, align 4
  br label %81

81:                                               ; preds = %111, %78
  %82 = load i32, i32* %2, align 4
  %83 = load i32, i32* %5, align 4
  %84 = icmp slt i32 %82, %83
  br i1 %84, label %85, label %116

85:                                               ; preds = %81
  %86 = load i32, i32* %2, align 4
  store i32 %86, i32* %4, align 4
  br label %87

87:                                               ; preds = %96, %85
  %88 = load i32, i32* %2, align 4
  %89 = load i32, i32* %5, align 4
  %90 = icmp slt i32 %88, %89
  br i1 %90, label %91, label %94

91:                                               ; preds = %87
  %92 = load i32, i32* %3, align 4
  %93 = icmp sge i32 %92, 0
  br label %94

94:                                               ; preds = %91, %87
  %95 = phi i1 [ false, %87 ], [ %93, %91 ]
  br i1 %95, label %96, label %111

96:                                               ; preds = %94
  %97 = load [100 x i32]*, [100 x i32]** %7, align 8
  %98 = load i32, i32* %2, align 4
  %99 = sext i32 %98 to i64
  %100 = getelementptr inbounds [100 x i32], [100 x i32]* %97, i64 %99
  %101 = getelementptr inbounds [100 x i32], [100 x i32]* %100, i64 0, i64 0
  %102 = load i32, i32* %3, align 4
  %103 = sext i32 %102 to i64
  %104 = getelementptr inbounds i32, i32* %101, i64 %103
  %105 = load i32, i32* %104, align 4
  %106 = call i32 (i8*, ...) @printf(i8* getelementptr inbounds ([4 x i8], [4 x i8]* @.str.2, i64 0, i64 0), i32 %105)
  %107 = load i32, i32* %3, align 4
  %108 = sub nsw i32 %107, 1
  store i32 %108, i32* %3, align 4
  %109 = load i32, i32* %2, align 4
  %110 = add nsw i32 %109, 1
  store i32 %110, i32* %2, align 4
  br label %87

111:                                              ; preds = %94
  %112 = load i32, i32* %4, align 4
  %113 = add nsw i32 %112, 1
  store i32 %113, i32* %2, align 4
  %114 = load i32, i32* %6, align 4
  %115 = sub nsw i32 %114, 1
  store i32 %115, i32* %3, align 4
  br label %81

116:                                              ; preds = %81
  %117 = load i32, i32* %1, align 4
  ret i32 %117
}

declare dso_local i32 @__isoc99_scanf(i8*, ...) #1

; Function Attrs: nounwind
declare dso_local noalias i8* @calloc(i64, i64) #2

declare dso_local i32 @printf(i8*, ...) #1


!llvm.module.flags = !{!0}
!llvm.ident = !{!1}

!0 = !{i32 1, !"wchar_size", i32 4}
!1 = !{!"clang version 10.0.0-4ubuntu1 "}
